target datalayout = "e-m:e-p270:32:32-p271:32:32-p272:64:64-i64:64-i128:128-f80:128-n8:16:32:64-S128"
target triple = "x86_64-pc-linux-gnu"

%struct._packet_info = type { ptr, ptr, i32, i32, %struct.nstime_t, %struct.nstime_t, %struct.nstime_t, i8, ptr, ptr, ptr, ptr, %struct._address, %struct._address, %struct._address, %struct._address, %struct._address, %struct._address, i32, ptr, i8, [3 x i8], %struct.anon, i32, i32, i32, i32, ptr, i8, ptr, ptr, i16, i16, i32, i32, i16, i32, i32, ptr, ptr, ptr, i8, i8, i16, i16, i16, i32, i16, i16, ptr, ptr, ptr, ptr, ptr, i32, i32 }
%struct.nstime_t = type { i64, i32 }
%struct._address = type { i32, i32, ptr, ptr }
%struct.anon = type { i8, [3 x i8] }
%struct.tm = type { i32, i32, i32, i32, i32, i32, i32, i32, i32, i64, ptr }

@.str.626 = private unnamed_addr constant [45 x i8] c"%04d-%02d-%02d %02d:%02d:%02d GMT%c%02d:%02d\00", align 1

; Function Attrs: alwaysinline nounwind
define internal ptr @memset.inline(ptr %0, i32 %1, i64 %2) #3 {
  %4 = alloca ptr, align 8
  %5 = alloca i32, align 4
  %6 = alloca i64, align 8
  store ptr %0, ptr %4, align 8
  store i32 %1, ptr %5, align 4
  store i64 %2, ptr %6, align 8
  %7 = load ptr, ptr %4, align 8
  %8 = load i32, ptr %5, align 4
  %9 = load i64, ptr %6, align 8
  %10 = load ptr, ptr %4, align 8
  %11 = call i64 @llvm.objectsize.i64.p0(ptr %10, i1 false, i1 true, i1 true)
  %12 = call ptr @__memset_chk(ptr noundef %7, i32 noundef %8, i64 noundef %9, i64 noundef %11) #13
  ret ptr %12
}

; Function Attrs: null_pointer_is_valid sspstrong uwtable
define internal ptr @tp_scts_values(ptr noundef %0, ptr noundef %1, i32 noundef %2, ptr noundef %3, ptr noundef %4, ptr noundef %5, ptr noundef %6, ptr noundef %7) #0 {
  %9 = alloca ptr, align 8
  %10 = alloca ptr, align 8
  %11 = alloca i32, align 4
  %12 = alloca ptr, align 8
  %13 = alloca ptr, align 8
  %14 = alloca ptr, align 8
  %15 = alloca ptr, align 8
  %16 = alloca ptr, align 8
  %17 = alloca ptr, align 8
  %18 = alloca i8, align 1
  store ptr %0, ptr %9, align 8
  store ptr %1, ptr %10, align 8
  store i32 %2, ptr %11, align 4
  store ptr %3, ptr %12, align 8
  store ptr %4, ptr %13, align 8
  store ptr %5, ptr %14, align 8
  store ptr %6, ptr %15, align 8
  store ptr %7, ptr %16, align 8
  call void @llvm.lifetime.start.p0(i64 8, ptr %17) #13
  call void @llvm.lifetime.start.p0(i64 1, ptr %18) #13
  %19 = load ptr, ptr %12, align 8
  %20 = call ptr @memset.inline(ptr noundef %19, i32 noundef 0, i64 noundef 56) #13
  %21 = load ptr, ptr %9, align 8
  %22 = load i32, ptr %11, align 4
  %23 = add i32 %22, 1
  store i32 %23, ptr %11, align 4
  %24 = call zeroext i8 @tvb_get_uint8(ptr noundef %21, i32 noundef %22)
  store i8 %24, ptr %18, align 1
  %25 = load i8, ptr %18, align 1
  %26 = zext i8 %25 to i32
  %27 = and i32 %26, 15
  %28 = mul i32 %27, 10
  %29 = add i32 100, %28
  %30 = load i8, ptr %18, align 1
  %31 = zext i8 %30 to i32
  %32 = and i32 %31, 240
  %33 = ashr i32 %32, 4
  %34 = add i32 %29, %33
  %35 = load ptr, ptr %12, align 8
  %36 = getelementptr inbounds nuw %struct.tm, ptr %35, i32 0, i32 5
  store i32 %34, ptr %36, align 4
  %37 = load ptr, ptr %9, align 8
  %38 = load i32, ptr %11, align 4
  %39 = add i32 %38, 1
  store i32 %39, ptr %11, align 4
  %40 = call zeroext i8 @tvb_get_uint8(ptr noundef %37, i32 noundef %38)
  store i8 %40, ptr %18, align 1
  %41 = load i8, ptr %18, align 1
  %42 = zext i8 %41 to i32
  %43 = and i32 %42, 15
  %44 = mul i32 %43, 10
  %45 = load i8, ptr %18, align 1
  %46 = zext i8 %45 to i32
  %47 = and i32 %46, 240
  %48 = ashr i32 %47, 4
  %49 = add i32 %44, %48
  %50 = sub i32 %49, 1
  %51 = load ptr, ptr %12, align 8
  %52 = getelementptr inbounds nuw %struct.tm, ptr %51, i32 0, i32 4
  store i32 %50, ptr %52, align 8
  %53 = load ptr, ptr %9, align 8
  %54 = load i32, ptr %11, align 4
  %55 = add i32 %54, 1
  store i32 %55, ptr %11, align 4
  %56 = call zeroext i8 @tvb_get_uint8(ptr noundef %53, i32 noundef %54)
  store i8 %56, ptr %18, align 1
  %57 = load i8, ptr %18, align 1
  %58 = zext i8 %57 to i32
  %59 = and i32 %58, 15
  %60 = mul i32 %59, 10
  %61 = load i8, ptr %18, align 1
  %62 = zext i8 %61 to i32
  %63 = and i32 %62, 240
  %64 = ashr i32 %63, 4
  %65 = add i32 %60, %64
  %66 = load ptr, ptr %12, align 8
  %67 = getelementptr inbounds nuw %struct.tm, ptr %66, i32 0, i32 3
  store i32 %65, ptr %67, align 4
  %68 = load ptr, ptr %9, align 8
  %69 = load i32, ptr %11, align 4
  %70 = add i32 %69, 1
  store i32 %70, ptr %11, align 4
  %71 = call zeroext i8 @tvb_get_uint8(ptr noundef %68, i32 noundef %69)
  store i8 %71, ptr %18, align 1
  %72 = load i8, ptr %18, align 1
  %73 = zext i8 %72 to i32
  %74 = and i32 %73, 15
  %75 = mul i32 %74, 10
  %76 = load i8, ptr %18, align 1
  %77 = zext i8 %76 to i32
  %78 = and i32 %77, 240
  %79 = ashr i32 %78, 4
  %80 = add i32 %75, %79
  %81 = load ptr, ptr %12, align 8
  %82 = getelementptr inbounds nuw %struct.tm, ptr %81, i32 0, i32 2
  store i32 %80, ptr %82, align 8
  %83 = load ptr, ptr %9, align 8
  %84 = load i32, ptr %11, align 4
  %85 = add i32 %84, 1
  store i32 %85, ptr %11, align 4
  %86 = call zeroext i8 @tvb_get_uint8(ptr noundef %83, i32 noundef %84)
  store i8 %86, ptr %18, align 1
  %87 = load i8, ptr %18, align 1
  %88 = zext i8 %87 to i32
  %89 = and i32 %88, 15
  %90 = mul i32 %89, 10
  %91 = load i8, ptr %18, align 1
  %92 = zext i8 %91 to i32
  %93 = and i32 %92, 240
  %94 = ashr i32 %93, 4
  %95 = add i32 %90, %94
  %96 = load ptr, ptr %12, align 8
  %97 = getelementptr inbounds nuw %struct.tm, ptr %96, i32 0, i32 1
  store i32 %95, ptr %97, align 4
  %98 = load ptr, ptr %9, align 8
  %99 = load i32, ptr %11, align 4
  %100 = add i32 %99, 1
  store i32 %100, ptr %11, align 4
  %101 = call zeroext i8 @tvb_get_uint8(ptr noundef %98, i32 noundef %99)
  store i8 %101, ptr %18, align 1
  %102 = load i8, ptr %18, align 1
  %103 = zext i8 %102 to i32
  %104 = and i32 %103, 15
  %105 = mul i32 %104, 10
  %106 = load i8, ptr %18, align 1
  %107 = zext i8 %106 to i32
  %108 = and i32 %107, 240
  %109 = ashr i32 %108, 4
  %110 = add i32 %105, %109
  %111 = load ptr, ptr %12, align 8
  %112 = getelementptr inbounds nuw %struct.tm, ptr %111, i32 0, i32 0
  store i32 %110, ptr %112, align 8
  %113 = load ptr, ptr %12, align 8
  %114 = getelementptr inbounds nuw %struct.tm, ptr %113, i32 0, i32 8
  store i32 -1, ptr %114, align 8
  %115 = load ptr, ptr %9, align 8
  %116 = load i32, ptr %11, align 4
  %117 = add i32 %116, 1
  store i32 %117, ptr %11, align 4
  %118 = call zeroext i8 @tvb_get_uint8(ptr noundef %115, i32 noundef %116)
  store i8 %118, ptr %18, align 1
  %119 = load i8, ptr %18, align 1
  %120 = zext i8 %119 to i32
  %121 = and i32 %120, 8
  %122 = icmp ne i32 %121, 0
  %123 = select i1 %122, i32 45, i32 43
  %124 = trunc i32 %123 to i8
  %125 = load ptr, ptr %14, align 8
  store i8 %124, ptr %125, align 1
  %126 = load i8, ptr %18, align 1
  %127 = zext i8 %126 to i32
  %128 = ashr i32 %127, 4
  %129 = load i8, ptr %18, align 1
  %130 = zext i8 %129 to i32
  %131 = and i32 %130, 7
  %132 = mul i32 %131, 10
  %133 = add i32 %128, %132
  %134 = trunc i32 %133 to i8
  store i8 %134, ptr %18, align 1
  %135 = load i8, ptr %18, align 1
  %136 = zext i8 %135 to i32
  %137 = sdiv i32 %136, 4
  %138 = trunc i32 %137 to i16
  %139 = load ptr, ptr %15, align 8
  store i16 %138, ptr %139, align 2
  %140 = load i8, ptr %18, align 1
  %141 = zext i8 %140 to i32
  %142 = srem i32 %141, 4
  %143 = mul i32 %142, 15
  %144 = trunc i32 %143 to i16
  %145 = load ptr, ptr %16, align 8
  store i16 %144, ptr %145, align 2
  %146 = load ptr, ptr %10, align 8
  %147 = getelementptr inbounds nuw %struct._packet_info, ptr %146, i32 0, i32 51
  %148 = load ptr, ptr %147, align 8
  %149 = load ptr, ptr %12, align 8
  %150 = getelementptr inbounds nuw %struct.tm, ptr %149, i32 0, i32 5
  %151 = load i32, ptr %150, align 4
  %152 = add i32 1900, %151
  %153 = load ptr, ptr %12, align 8
  %154 = getelementptr inbounds nuw %struct.tm, ptr %153, i32 0, i32 4
  %155 = load i32, ptr %154, align 8
  %156 = add i32 %155, 1
  %157 = load ptr, ptr %12, align 8
  %158 = getelementptr inbounds nuw %struct.tm, ptr %157, i32 0, i32 3
  %159 = load i32, ptr %158, align 4
  %160 = load ptr, ptr %12, align 8
  %161 = getelementptr inbounds nuw %struct.tm, ptr %160, i32 0, i32 2
  %162 = load i32, ptr %161, align 8
  %163 = load ptr, ptr %12, align 8
  %164 = getelementptr inbounds nuw %struct.tm, ptr %163, i32 0, i32 1
  %165 = load i32, ptr %164, align 4
  %166 = load ptr, ptr %12, align 8
  %167 = getelementptr inbounds nuw %struct.tm, ptr %166, i32 0, i32 0
  %168 = load i32, ptr %167, align 8
  %169 = load ptr, ptr %14, align 8
  %170 = load i8, ptr %169, align 1
  %171 = sext i8 %170 to i32
  %172 = load ptr, ptr %15, align 8
  %173 = load i16, ptr %172, align 2
  %174 = zext i16 %173 to i32
  %175 = load ptr, ptr %16, align 8
  %176 = load i16, ptr %175, align 2
  %177 = zext i16 %176 to i32
  %178 = call noalias ptr (ptr, ptr, ...) @wmem_strdup_printf(ptr noundef %148, ptr noundef @.str.626, i32 noundef %152, i32 noundef %156, i32 noundef %159, i32 noundef %162, i32 noundef %165, i32 noundef %168, i32 noundef %171, i32 noundef %174, i32 noundef %177)
  store ptr %178, ptr %17, align 8
  %179 = load ptr, ptr %12, align 8
  %180 = call i64 @mktime_utc(ptr noundef %179)
  %181 = load ptr, ptr %13, align 8
  %182 = getelementptr inbounds nuw %struct.nstime_t, ptr %181, i32 0, i32 0
  store i64 %180, ptr %182, align 8
  %183 = load ptr, ptr %14, align 8
  %184 = load i8, ptr %183, align 1
  %185 = sext i8 %184 to i32
  %186 = icmp eq i32 %185, 43
  br i1 %186, label %187, label %202

187:                                              ; preds = %8
  %188 = load ptr, ptr %15, align 8
  %189 = load i16, ptr %188, align 2
  %190 = zext i16 %189 to i32
  %191 = mul i32 %190, 3600
  %192 = load ptr, ptr %16, align 8
  %193 = load i16, ptr %192, align 2
  %194 = zext i16 %193 to i32
  %195 = mul i32 %194, 60
  %196 = add i32 %191, %195
  %197 = sext i32 %196 to i64
  %198 = load ptr, ptr %13, align 8
  %199 = getelementptr inbounds nuw %struct.nstime_t, ptr %198, i32 0, i32 0
  %200 = load i64, ptr %199, align 8
  %201 = sub i64 %200, %197
  store i64 %201, ptr %199, align 8
  br label %217

202:                                              ; preds = %8
  %203 = load ptr, ptr %15, align 8
  %204 = load i16, ptr %203, align 2
  %205 = zext i16 %204 to i32
  %206 = mul i32 %205, 3600
  %207 = load ptr, ptr %16, align 8
  %208 = load i16, ptr %207, align 2
  %209 = zext i16 %208 to i32
  %210 = mul i32 %209, 60
  %211 = add i32 %206, %210
  %212 = sext i32 %211 to i64
  %213 = load ptr, ptr %13, align 8
  %214 = getelementptr inbounds nuw %struct.nstime_t, ptr %213, i32 0, i32 0
  %215 = load i64, ptr %214, align 8
  %216 = add i64 %215, %212
  store i64 %216, ptr %214, align 8
  br label %217

217:                                              ; preds = %202, %187
  %218 = load ptr, ptr %13, align 8
  %219 = getelementptr inbounds nuw %struct.nstime_t, ptr %218, i32 0, i32 1
  store i32 0, ptr %219, align 8
  %220 = load ptr, ptr %17, align 8
  call void @llvm.lifetime.end.p0(i64 1, ptr %18) #13
  call void @llvm.lifetime.end.p0(i64 8, ptr %17) #13
  ret ptr %220
}