; Function Attrs: null_pointer_is_valid sspstrong uwtable
define internal fastcc noalias ptr @tp_scts_values(ptr noundef %0, ptr noundef readonly captures(none) %1, i32 noundef %2, ptr noundef %3, ptr noundef writeonly captures(none) initializes((0, 12)) %4, ptr noundef captures(none) initializes((0, 1)) %5, ptr noundef captures(none) initializes((0, 2)) %6, ptr noundef captures(none) initializes((0, 2)) %7) unnamed_addr #0 {
  tail call void @llvm.memset.p0.i64(ptr noundef align 1 dereferenceable(56) %3, i8 noundef 0, i64 noundef 56, i1 noundef false) #10
  %9 = add i32 %2, 1
  %10 = tail call zeroext i8 @tvb_get_uint8(ptr noundef %0, i32 noundef %2)
  %11 = zext i8 %10 to i32
  %12 = and i32 %11, 15
  %13 = mul nuw nsw i32 %12, 10
  %14 = lshr i32 %11, 4
  %15 = add nuw nsw i32 %14, 100
  %16 = add nuw nsw i32 %15, %13
  %17 = getelementptr inbounds nuw i8, ptr %3, i64 20
  store i32 %16, ptr %17, align 4
  %18 = add i32 %2, 2
  %19 = tail call zeroext i8 @tvb_get_uint8(ptr noundef %0, i32 noundef %9)
  %20 = zext i8 %19 to i32
  %21 = and i32 %20, 15
  %22 = mul nuw nsw i32 %21, 10
  %23 = lshr i32 %20, 4
  %24 = add nsw i32 %23, -1
  %25 = add nsw i32 %24, %22
  %26 = getelementptr inbounds nuw i8, ptr %3, i64 16
  store i32 %25, ptr %26, align 8
  %27 = add i32 %2, 3
  %28 = tail call zeroext i8 @tvb_get_uint8(ptr noundef %0, i32 noundef %18)
  %29 = zext i8 %28 to i32
  %30 = and i32 %29, 15
  %31 = mul nuw nsw i32 %30, 10
  %32 = lshr i32 %29, 4
  %33 = add nuw nsw i32 %31, %32
  %34 = getelementptr inbounds nuw i8, ptr %3, i64 12
  store i32 %33, ptr %34, align 4
  %35 = add i32 %2, 4
  %36 = tail call zeroext i8 @tvb_get_uint8(ptr noundef %0, i32 noundef %27)
  %37 = zext i8 %36 to i32
  %38 = and i32 %37, 15
  %39 = mul nuw nsw i32 %38, 10
  %40 = lshr i32 %37, 4
  %41 = add nuw nsw i32 %39, %40
  %42 = getelementptr inbounds nuw i8, ptr %3, i64 8
  store i32 %41, ptr %42, align 8
  %43 = add i32 %2, 5
  %44 = tail call zeroext i8 @tvb_get_uint8(ptr noundef %0, i32 noundef %35)
  %45 = zext i8 %44 to i32
  %46 = and i32 %45, 15
  %47 = mul nuw nsw i32 %46, 10
  %48 = lshr i32 %45, 4
  %49 = add nuw nsw i32 %47, %48
  %50 = getelementptr inbounds nuw i8, ptr %3, i64 4
  store i32 %49, ptr %50, align 4
  %51 = add i32 %2, 6
  %52 = tail call zeroext i8 @tvb_get_uint8(ptr noundef %0, i32 noundef %43)
  %53 = zext i8 %52 to i32
  %54 = and i32 %53, 15
  %55 = mul nuw nsw i32 %54, 10
  %56 = lshr i32 %53, 4
  %57 = add nuw nsw i32 %55, %56
  store i32 %57, ptr %3, align 8
  %58 = getelementptr inbounds nuw i8, ptr %3, i64 32
  store i32 -1, ptr %58, align 8
  %59 = tail call zeroext i8 @tvb_get_uint8(ptr noundef %0, i32 noundef %51)
  %60 = and i8 %59, 8
  %.not = icmp eq i8 %60, 0
  %61 = select i1 %.not, i8 43, i8 45
  store i8 %61, ptr %5, align 1
  %62 = lshr i8 %59, 4
  %63 = and i8 %59, 7
  %64 = mul nuw nsw i8 %63, 10
  %65 = add nuw nsw i8 %64, %62
  %66 = lshr i8 %65, 2
  %67 = zext nneg i8 %66 to i16
  store i16 %67, ptr %6, align 2
  %68 = and i8 %65, 3
  %narrow = mul nuw nsw i8 %68, 15
  %69 = zext nneg i8 %narrow to i16
  store i16 %69, ptr %7, align 2
  %70 = getelementptr inbounds nuw i8, ptr %1, i64 408
  %71 = load ptr, ptr %70, align 8
  %72 = load i32, ptr %17, align 4
  %73 = add i32 %72, 1900
  %74 = load i32, ptr %26, align 8
  %75 = add i32 %74, 1
  %76 = load i32, ptr %34, align 4
  %77 = load i32, ptr %42, align 8
  %78 = load i32, ptr %50, align 4
  %79 = load i32, ptr %3, align 8
  %80 = load i8, ptr %5, align 1
  %81 = sext i8 %80 to i32
  %82 = load i16, ptr %6, align 2
  %83 = zext i16 %82 to i32
  %84 = zext nneg i8 %narrow to i32
  %85 = tail call noalias ptr (ptr, ptr, ...) @wmem_strdup_printf(ptr noundef %71, ptr noundef nonnull @.str.626, i32 noundef %73, i32 noundef %75, i32 noundef %76, i32 noundef %77, i32 noundef %78, i32 noundef %79, i32 noundef %81, i32 noundef %83, i32 noundef %84)
  %86 = tail call i64 @mktime_utc(ptr noundef %3)
  store i64 %86, ptr %4, align 8
  %87 = load i8, ptr %5, align 1
  %88 = icmp eq i8 %87, 43
  %89 = load i16, ptr %6, align 2
  %90 = zext i16 %89 to i64
  %91 = load i16, ptr %7, align 2
  %92 = zext i16 %91 to i64
  %. = select i1 %88, i64 -3600, i64 3600
  %.67 = select i1 %88, i64 -60, i64 60
  %93 = mul nsw i64 %., %90
  %94 = mul nsw i64 %.67, %92
  %95 = add i64 %93, %86
  %96 = add i64 %95, %94
  store i64 %96, ptr %4, align 8
  %97 = getelementptr inbounds nuw i8, ptr %4, i64 8
  store i32 0, ptr %97, align 8
  ret ptr %85
}